; Function Attrs: mustprogress ssp uwtable
define void @_ZN6open3d13visualization29VisualizerWithVertexSelection20WindowResizeCallbackEP10GLFWwindowii(ptr noundef nonnull align 16 dereferenceable(1384) initializes((488, 492)) %0, ptr noundef %1, i32 noundef %2, i32 noundef %3) unnamed_addr #1 align 2 personality ptr @__gxx_personality_v0 {
  %5 = getelementptr inbounds nuw i8, ptr %0, i64 512
  %6 = load ptr, ptr %5, align 16, !tbaa !35
  %7 = getelementptr inbounds nuw i8, ptr %0, i64 520
  %8 = load ptr, ptr %7, align 8, !tbaa !243
  %.not.i.i.i = icmp eq ptr %8, %6
  br i1 %.not.i.i.i, label %_ZNSt6vectorIiSaIiEE5clearEv.exit.i, label %_ZSt8_DestroyIPiiEvT_S1_RSaIT0_E.exit.i.i.i

_ZSt8_DestroyIPiiEvT_S1_RSaIT0_E.exit.i.i.i:      ; preds = %4
  store ptr %6, ptr %7, align 8, !tbaa !243
  br label %_ZNSt6vectorIiSaIiEE5clearEv.exit.i

_ZNSt6vectorIiSaIiEE5clearEv.exit.i:              ; preds = %_ZSt8_DestroyIPiiEvT_S1_RSaIT0_E.exit.i.i.i, %4
  %9 = getelementptr inbounds nuw i8, ptr %0, i64 456
  %10 = load ptr, ptr %9, align 8, !tbaa !205
  %.not.i = icmp eq ptr %10, null
  br i1 %.not.i, label %16, label %11

11:                                               ; preds = %_ZNSt6vectorIiSaIiEE5clearEv.exit.i
  %12 = load ptr, ptr %10, align 8, !tbaa !4
  %13 = getelementptr inbounds nuw i8, ptr %12, i64 16
  %14 = load ptr, ptr %13, align 8
  %15 = tail call noundef nonnull align 8 dereferenceable(172) ptr %14(ptr noundef nonnull align 8 dereferenceable(172) %10)
  br label %16

16:                                               ; preds = %11, %_ZNSt6vectorIiSaIiEE5clearEv.exit.i
  %17 = getelementptr inbounds nuw i8, ptr %0, i64 472
  %18 = load ptr, ptr %17, align 8, !tbaa !203
  %.not1.i = icmp eq ptr %18, null
  br i1 %.not1.i, label %_ZN6open3d13visualization29VisualizerWithVertexSelection26InvalidateSelectionPolygonEv.exit, label %19

19:                                               ; preds = %16
  %20 = load ptr, ptr %18, align 8, !tbaa !4
  %21 = getelementptr inbounds nuw i8, ptr %20, i64 32
  %22 = load ptr, ptr %21, align 8
  %23 = tail call noundef zeroext i1 %22(ptr noundef nonnull align 8 dereferenceable(240) %18)
  br label %_ZN6open3d13visualization29VisualizerWithVertexSelection26InvalidateSelectionPolygonEv.exit

_ZN6open3d13visualization29VisualizerWithVertexSelection26InvalidateSelectionPolygonEv.exit: ; preds = %16, %19
  %24 = getelementptr inbounds nuw i8, ptr %0, i64 488
  store i32 0, ptr %24, align 8, !tbaa !244
  tail call void @_ZN6open3d13visualization10Visualizer20WindowResizeCallbackEP10GLFWwindowii(ptr noundef nonnull align 8 dereferenceable(456) %0, ptr noundef %1, i32 noundef %2, i32 noundef %3)
  ret void
}